; Function Attrs: nounwind uwtable
define dso_local range(i32 -2147483647, -2147483648) i32 @uv_udp_set_multicast_loop(ptr noundef readonly captures(none) %0, i32 noundef %1) local_unnamed_addr #0 {
  %3 = alloca i32, align 4
  call void @llvm.lifetime.start.p0(i64 4, ptr nonnull %3)
  store i32 %1, ptr %3, align 4
  %or.cond.i = icmp ugt i32 %1, 255
  br i1 %or.cond.i, label %uv__setsockopt_maybe_char.exit, label %4

4:                                                ; preds = %2
  %5 = getelementptr inbounds nuw i8, ptr %0, i64 88
  %6 = load i32, ptr %5, align 8
  %7 = and i32 %6, 4194304
  %.not.i.i = icmp eq i32 %7, 0
  %8 = getelementptr inbounds nuw i8, ptr %0, i64 176
  %9 = load i32, ptr %8, align 8
  br i1 %.not.i.i, label %12, label %10

10:                                               ; preds = %4
  %11 = call i32 @setsockopt(i32 noundef %9, i32 noundef 41, i32 noundef range(i32 16, 20) 19, ptr noundef nonnull %3, i32 noundef 4) #9
  br label %14

12:                                               ; preds = %4
  %13 = call i32 @setsockopt(i32 noundef %9, i32 noundef 0, i32 noundef range(i32 2, 35) 34, ptr noundef nonnull %3, i32 noundef 4) #9
  br label %14

14:                                               ; preds = %12, %10
  %.0.i.i = phi i32 [ %11, %10 ], [ %13, %12 ]
  %.not11.i.i = icmp eq i32 %.0.i.i, 0
  br i1 %.not11.i.i, label %uv__setsockopt_maybe_char.exit, label %15

15:                                               ; preds = %14
  %16 = tail call ptr @__errno_location() #10
  %17 = load i32, ptr %16, align 4
  %18 = sub nsw i32 0, %17
  br label %uv__setsockopt_maybe_char.exit

uv__setsockopt_maybe_char.exit:                   ; preds = %2, %14, %15
  %.0.i = phi i32 [ -22, %2 ], [ %18, %15 ], [ 0, %14 ]
  call void @llvm.lifetime.end.p0(i64 4, ptr nonnull %3)
  ret i32 %.0.i
}